target datalayout = "e-m:e-p270:32:32-p271:32:32-p272:64:64-i64:64-i128:128-f80:128-n8:16:32:64-S128"
target triple = "x86_64-pc-linux-gnu"

%struct.dsa_method = type { ptr, ptr, ptr, ptr, ptr, ptr, ptr, ptr, i32, ptr, ptr, ptr }

@.str = private unnamed_addr constant [33 x i8] c"../openssl/crypto/dsa/dsa_meth.c\00", align 1

; Function Attrs: nounwind uwtable
define void @DSA_meth_free(ptr noundef %0) #0 {
  %2 = alloca ptr, align 8
  store ptr %0, ptr %2, align 8, !tbaa !10
  %3 = load ptr, ptr %2, align 8, !tbaa !10
  %4 = icmp ne ptr %3, null
  br i1 %4, label %5, label %10

5:                                                ; preds = %1
  %6 = load ptr, ptr %2, align 8, !tbaa !10
  %7 = getelementptr inbounds nuw %struct.dsa_method, ptr %6, i32 0, i32 0
  %8 = load ptr, ptr %7, align 8, !tbaa !14
  call void @CRYPTO_free(ptr noundef %8, ptr noundef @.str, i32 noundef 41)
  %9 = load ptr, ptr %2, align 8, !tbaa !10
  call void @CRYPTO_free(ptr noundef %9, ptr noundef @.str, i32 noundef 42)
  br label %10

10:                                               ; preds = %5, %1
  ret void
}