; Function Attrs: nounwind uwtable
define void @DSA_meth_free(ptr noundef %0) local_unnamed_addr #0 {
  %.not = icmp eq ptr %0, null
  br i1 %.not, label %4, label %2

2:                                                ; preds = %1
  %3 = load ptr, ptr %0, align 8, !tbaa !10
  tail call void @CRYPTO_free(ptr noundef %3, ptr noundef nonnull @.str, i32 noundef 41) #5
  tail call void @CRYPTO_free(ptr noundef nonnull %0, ptr noundef nonnull @.str, i32 noundef 42) #5
  br label %4

4:                                                ; preds = %2, %1
  ret void
}